target datalayout = "e-m:e-p270:32:32-p271:32:32-p272:64:64-i64:64-i128:128-f80:128-n8:16:32:64-S128"
target triple = "x86_64-pc-linux-gnu"

%"class.llvm::IntrusiveRefCntPtr" = type { ptr }
%"class.llvm::vfs::FileSystem.base" = type <{ %"class.llvm::RTTIExtends", %"class.llvm::ThreadSafeRefCountedBase" }>
%"class.llvm::RTTIExtends" = type { %"class.llvm::RTTIRoot" }
%"class.llvm::RTTIRoot" = type { ptr }
%"class.llvm::ThreadSafeRefCountedBase" = type { %"struct.std::atomic" }
%"struct.std::atomic" = type { %"struct.std::__atomic_base" }
%"struct.std::__atomic_base" = type { i32 }
%"class.llvm::vfs::OverlayFileSystem" = type { %"class.llvm::RTTIExtends.base", %"class.llvm::SmallVector" }
%"class.llvm::RTTIExtends.base" = type { %"class.llvm::vfs::FileSystem.base" }
%"class.llvm::SmallVector" = type { %"class.llvm::SmallVectorImpl.43", %"struct.llvm::SmallVectorStorage" }
%"class.llvm::SmallVectorImpl.43" = type { %"class.llvm::SmallVectorTemplateBase.44" }
%"class.llvm::SmallVectorTemplateBase.44" = type { %"class.llvm::SmallVectorTemplateCommon.45" }
%"class.llvm::SmallVectorTemplateCommon.45" = type { %"class.llvm::SmallVectorBase.46" }
%"class.llvm::SmallVectorBase.46" = type { ptr, i32, i32 }
%"struct.llvm::SmallVectorStorage" = type { [8 x i8] }
%"class.std::reverse_iterator" = type { ptr }

; Function Attrs: mustprogress nounwind uwtable
define linkonce_odr hidden noundef ptr @_ZNKSt16reverse_iteratorIPN4llvm18IntrusiveRefCntPtrINS0_3vfs10FileSystemEEEE4baseEv(ptr noundef nonnull align 8 dereferenceable(8) %0) #0 comdat align 2 {
  %2 = alloca ptr, align 8
  store ptr %0, ptr %2, align 8
  %3 = load ptr, ptr %2, align 8
  %4 = getelementptr inbounds nuw %"class.std::reverse_iterator", ptr %3, i32 0, i32 0
  %5 = load ptr, ptr %4, align 8
  ret ptr %5
}

; Function Attrs: mustprogress nounwind uwtable
define linkonce_odr hidden noundef ptr @_ZN4llvm25SmallVectorTemplateCommonINS_18IntrusiveRefCntPtrINS_3vfs10FileSystemEEEvE5beginEv(ptr noundef nonnull align 8 dereferenceable(16) %0) #0 comdat align 2 {
  %2 = alloca ptr, align 8
  store ptr %0, ptr %2, align 8
  %3 = load ptr, ptr %2, align 8
  %4 = getelementptr inbounds nuw %"class.llvm::SmallVectorBase.46", ptr %3, i32 0, i32 0
  %5 = load ptr, ptr %4, align 8
  ret ptr %5
}

; Function Attrs: mustprogress nounwind uwtable
define linkonce_odr hidden void @_ZNSt16reverse_iteratorIPN4llvm18IntrusiveRefCntPtrINS0_3vfs10FileSystemEEEEC2ES5_(ptr noundef nonnull align 8 dereferenceable(8) %0, ptr noundef %1) unnamed_addr #0 comdat align 2 {
  %3 = alloca ptr, align 8
  %4 = alloca ptr, align 8
  store ptr %0, ptr %3, align 8
  store ptr %1, ptr %4, align 8
  %5 = load ptr, ptr %3, align 8
  %6 = getelementptr inbounds nuw %"class.std::reverse_iterator", ptr %5, i32 0, i32 0
  %7 = load ptr, ptr %4, align 8
  store ptr %7, ptr %6, align 8
  ret void
}

; Function Attrs: mustprogress nounwind uwtable
define linkonce_odr hidden noundef ptr @_ZN4llvm25SmallVectorTemplateCommonINS_18IntrusiveRefCntPtrINS_3vfs10FileSystemEEEvE3endEv(ptr noundef nonnull align 8 dereferenceable(16) %0) #0 comdat align 2 {
  %2 = alloca ptr, align 8
  store ptr %0, ptr %2, align 8
  %3 = load ptr, ptr %2, align 8
  %4 = call noundef ptr @_ZN4llvm25SmallVectorTemplateCommonINS_18IntrusiveRefCntPtrINS_3vfs10FileSystemEEEvE5beginEv(ptr noundef nonnull align 8 dereferenceable(16) %3)
  %5 = call noundef i64 @_ZNK4llvm15SmallVectorBaseIjE4sizeEv(ptr noundef nonnull align 8 dereferenceable(16) %3)
  %6 = getelementptr inbounds %"class.llvm::IntrusiveRefCntPtr", ptr %4, i64 %5
  ret ptr %6
}

; Function Attrs: mustprogress nounwind uwtable
define linkonce_odr noundef zeroext i1 @_ZSteqIPN4llvm18IntrusiveRefCntPtrINS0_3vfs10FileSystemEEEEbRKSt16reverse_iteratorIT_ESA_(ptr noundef nonnull align 8 dereferenceable(8) %0, ptr noundef nonnull align 8 dereferenceable(8) %1) #0 comdat {
  %3 = alloca ptr, align 8
  %4 = alloca ptr, align 8
  store ptr %0, ptr %3, align 8
  store ptr %1, ptr %4, align 8
  %5 = load ptr, ptr %3, align 8
  %6 = call noundef ptr @_ZNKSt16reverse_iteratorIPN4llvm18IntrusiveRefCntPtrINS0_3vfs10FileSystemEEEE4baseEv(ptr noundef nonnull align 8 dereferenceable(8) %5) #5
  %7 = load ptr, ptr %4, align 8
  %8 = call noundef ptr @_ZNKSt16reverse_iteratorIPN4llvm18IntrusiveRefCntPtrINS0_3vfs10FileSystemEEEE4baseEv(ptr noundef nonnull align 8 dereferenceable(8) %7) #5
  %9 = icmp eq ptr %6, %8
  ret i1 %9
}

; Function Attrs: mustprogress nounwind uwtable
define linkonce_odr hidden void @_ZN4llvm25SmallVectorTemplateCommonINS_18IntrusiveRefCntPtrINS_3vfs10FileSystemEEEvE4rendEv(ptr dead_on_unwind noalias writable sret(%"class.std::reverse_iterator") align 8 %0, ptr noundef nonnull align 8 dereferenceable(16) %1) #0 comdat align 2 {
  %3 = alloca ptr, align 8
  %4 = alloca ptr, align 8
  store ptr %0, ptr %3, align 8
  store ptr %1, ptr %4, align 8
  %5 = load ptr, ptr %4, align 8
  %6 = call noundef ptr @_ZN4llvm25SmallVectorTemplateCommonINS_18IntrusiveRefCntPtrINS_3vfs10FileSystemEEEvE5beginEv(ptr noundef nonnull align 8 dereferenceable(16) %5)
  call void @_ZNSt16reverse_iteratorIPN4llvm18IntrusiveRefCntPtrINS0_3vfs10FileSystemEEEEC2ES5_(ptr noundef nonnull align 8 dereferenceable(8) %0, ptr noundef %6) #5
  ret void
}

; Function Attrs: mustprogress nounwind uwtable
define linkonce_odr hidden void @_ZN4llvm25SmallVectorTemplateCommonINS_18IntrusiveRefCntPtrINS_3vfs10FileSystemEEEvE6rbeginEv(ptr dead_on_unwind noalias writable sret(%"class.std::reverse_iterator") align 8 %0, ptr noundef nonnull align 8 dereferenceable(16) %1) #0 comdat align 2 {
  %3 = alloca ptr, align 8
  %4 = alloca ptr, align 8
  store ptr %0, ptr %3, align 8
  store ptr %1, ptr %4, align 8
  %5 = load ptr, ptr %4, align 8
  %6 = call noundef ptr @_ZN4llvm25SmallVectorTemplateCommonINS_18IntrusiveRefCntPtrINS_3vfs10FileSystemEEEvE3endEv(ptr noundef nonnull align 8 dereferenceable(16) %5)
  call void @_ZNSt16reverse_iteratorIPN4llvm18IntrusiveRefCntPtrINS0_3vfs10FileSystemEEEEC2ES5_(ptr noundef nonnull align 8 dereferenceable(8) %0, ptr noundef %6) #5
  ret void
}

; Function Attrs: mustprogress nounwind uwtable
define linkonce_odr hidden noundef nonnull align 8 dereferenceable(8) ptr @_ZNSt16reverse_iteratorIPN4llvm18IntrusiveRefCntPtrINS0_3vfs10FileSystemEEEEppEv(ptr noundef nonnull align 8 dereferenceable(8) %0) #0 comdat align 2 {
  %2 = alloca ptr, align 8
  store ptr %0, ptr %2, align 8
  %3 = load ptr, ptr %2, align 8
  %4 = getelementptr inbounds nuw %"class.std::reverse_iterator", ptr %3, i32 0, i32 0
  %5 = load ptr, ptr %4, align 8
  %6 = getelementptr inbounds %"class.llvm::IntrusiveRefCntPtr", ptr %5, i32 -1
  store ptr %6, ptr %4, align 8
  ret ptr %3
}

; Function Attrs: mustprogress nounwind uwtable
define linkonce_odr hidden noundef ptr @_ZNK4llvm18IntrusiveRefCntPtrINS_3vfs10FileSystemEEptEv(ptr noundef nonnull align 8 dereferenceable(8) %0) #0 comdat align 2 {
  %2 = alloca ptr, align 8
  store ptr %0, ptr %2, align 8
  %3 = load ptr, ptr %2, align 8
  %4 = getelementptr inbounds nuw %"class.llvm::IntrusiveRefCntPtr", ptr %3, i32 0, i32 0
  %5 = load ptr, ptr %4, align 8
  ret ptr %5
}

; Function Attrs: mustprogress nounwind uwtable
define linkonce_odr hidden noundef nonnull align 8 dereferenceable(8) ptr @_ZNKSt16reverse_iteratorIPN4llvm18IntrusiveRefCntPtrINS0_3vfs10FileSystemEEEEdeEv(ptr noundef nonnull align 8 dereferenceable(8) %0) #0 comdat align 2 {
  %2 = alloca ptr, align 8
  %3 = alloca ptr, align 8
  store ptr %0, ptr %2, align 8
  %4 = load ptr, ptr %2, align 8
  %5 = getelementptr inbounds nuw %"class.std::reverse_iterator", ptr %4, i32 0, i32 0
  %6 = load ptr, ptr %5, align 8
  store ptr %6, ptr %3, align 8
  %7 = load ptr, ptr %3, align 8
  %8 = getelementptr inbounds %"class.llvm::IntrusiveRefCntPtr", ptr %7, i32 -1
  store ptr %8, ptr %3, align 8
  ret ptr %8
}

; Function Attrs: mustprogress nounwind uwtable
define linkonce_odr noundef zeroext i1 @_ZStneIPN4llvm18IntrusiveRefCntPtrINS0_3vfs10FileSystemEEEEbRKSt16reverse_iteratorIT_ESA_(ptr noundef nonnull align 8 dereferenceable(8) %0, ptr noundef nonnull align 8 dereferenceable(8) %1) #0 comdat {
  %3 = alloca ptr, align 8
  %4 = alloca ptr, align 8
  store ptr %0, ptr %3, align 8
  store ptr %1, ptr %4, align 8
  %5 = load ptr, ptr %3, align 8
  %6 = load ptr, ptr %4, align 8
  %7 = call noundef zeroext i1 @_ZSteqIPN4llvm18IntrusiveRefCntPtrINS0_3vfs10FileSystemEEEEbRKSt16reverse_iteratorIT_ESA_(ptr noundef nonnull align 8 dereferenceable(8) %5, ptr noundef nonnull align 8 dereferenceable(8) %6)
  %8 = xor i1 %7, true
  ret i1 %8
}

; Function Attrs: mustprogress nounwind uwtable
define linkonce_odr hidden void @_ZN4llvm3vfs17OverlayFileSystem12overlays_endEv(ptr dead_on_unwind noalias writable sret(%"class.std::reverse_iterator") align 8 %0, ptr noundef nonnull align 8 dereferenceable(40) %1) #0 comdat align 2 {
  %3 = alloca ptr, align 8
  %4 = alloca ptr, align 8
  store ptr %0, ptr %3, align 8
  store ptr %1, ptr %4, align 8
  %5 = load ptr, ptr %4, align 8
  %6 = getelementptr inbounds nuw %"class.llvm::vfs::OverlayFileSystem", ptr %5, i32 0, i32 1
  call void @_ZN4llvm25SmallVectorTemplateCommonINS_18IntrusiveRefCntPtrINS_3vfs10FileSystemEEEvE4rendEv(ptr dead_on_unwind writable sret(%"class.std::reverse_iterator") align 8 %0, ptr noundef nonnull align 8 dereferenceable(16) %6)
  ret void
}

; Function Attrs: mustprogress nounwind uwtable
define linkonce_odr hidden void @_ZN4llvm3vfs17OverlayFileSystem14overlays_beginEv(ptr dead_on_unwind noalias writable sret(%"class.std::reverse_iterator") align 8 %0, ptr noundef nonnull align 8 dereferenceable(40) %1) #0 comdat align 2 {
  %3 = alloca ptr, align 8
  %4 = alloca ptr, align 8
  store ptr %0, ptr %3, align 8
  store ptr %1, ptr %4, align 8
  %5 = load ptr, ptr %4, align 8
  %6 = getelementptr inbounds nuw %"class.llvm::vfs::OverlayFileSystem", ptr %5, i32 0, i32 1
  call void @_ZN4llvm25SmallVectorTemplateCommonINS_18IntrusiveRefCntPtrINS_3vfs10FileSystemEEEvE6rbeginEv(ptr dead_on_unwind writable sret(%"class.std::reverse_iterator") align 8 %0, ptr noundef nonnull align 8 dereferenceable(16) %6)
  ret void
}

; Function Attrs: mustprogress nounwind uwtable
define dso_local noundef zeroext i1 @_ZN4llvm3vfs17OverlayFileSystem6existsERKNS_5TwineE(ptr noundef nonnull align 8 dereferenceable(40) %0, ptr noundef nonnull align 8 dereferenceable(34) %1) unnamed_addr #0 align 2 {
  %3 = alloca i1, align 1
  %4 = alloca ptr, align 8
  %5 = alloca ptr, align 8
  %6 = alloca %"class.std::reverse_iterator", align 8
  %7 = alloca %"class.std::reverse_iterator", align 8
  store ptr %0, ptr %4, align 8
  store ptr %1, ptr %5, align 8
  %8 = load ptr, ptr %4, align 8
  call void @_ZN4llvm3vfs17OverlayFileSystem14overlays_beginEv(ptr dead_on_unwind writable sret(%"class.std::reverse_iterator") align 8 %6, ptr noundef nonnull align 8 dereferenceable(40) %8)
  call void @_ZN4llvm3vfs17OverlayFileSystem12overlays_endEv(ptr dead_on_unwind writable sret(%"class.std::reverse_iterator") align 8 %7, ptr noundef nonnull align 8 dereferenceable(40) %8)
  br label %9

9:                                                ; preds = %21, %2
  %10 = call noundef zeroext i1 @_ZStneIPN4llvm18IntrusiveRefCntPtrINS0_3vfs10FileSystemEEEEbRKSt16reverse_iteratorIT_ESA_(ptr noundef nonnull align 8 dereferenceable(8) %6, ptr noundef nonnull align 8 dereferenceable(8) %7)
  br i1 %10, label %11, label %23

11:                                               ; preds = %9
  %12 = call noundef nonnull align 8 dereferenceable(8) ptr @_ZNKSt16reverse_iteratorIPN4llvm18IntrusiveRefCntPtrINS0_3vfs10FileSystemEEEEdeEv(ptr noundef nonnull align 8 dereferenceable(8) %6)
  %13 = call noundef ptr @_ZNK4llvm18IntrusiveRefCntPtrINS_3vfs10FileSystemEEptEv(ptr noundef nonnull align 8 dereferenceable(8) %12)
  %14 = load ptr, ptr %5, align 8
  %15 = load ptr, ptr %13, align 8
  %16 = getelementptr inbounds ptr, ptr %15, i64 11
  %17 = load ptr, ptr %16, align 8
  %18 = call noundef zeroext i1 %17(ptr noundef nonnull align 8 dereferenceable(12) %13, ptr noundef nonnull align 8 dereferenceable(34) %14)
  br i1 %18, label %19, label %20

19:                                               ; preds = %11
  store i1 true, ptr %3, align 1
  br label %24

20:                                               ; preds = %11
  br label %21

21:                                               ; preds = %20
  %22 = call noundef nonnull align 8 dereferenceable(8) ptr @_ZNSt16reverse_iteratorIPN4llvm18IntrusiveRefCntPtrINS0_3vfs10FileSystemEEEEppEv(ptr noundef nonnull align 8 dereferenceable(8) %6)
  br label %9, !llvm.loop !7

23:                                               ; preds = %9
  store i1 false, ptr %3, align 1
  br label %24

24:                                               ; preds = %23, %19
  %25 = load i1, ptr %3, align 1
  ret i1 %25
}