; Function Attrs: mustprogress nounwind uwtable
define dso_local noundef zeroext i1 @_ZN4llvm3vfs17OverlayFileSystem6existsERKNS_5TwineE(ptr noundef nonnull align 8 dereferenceable(40) %0, ptr noundef nonnull align 8 dereferenceable(34) %1) unnamed_addr #0 align 2 {
  %3 = getelementptr inbounds nuw i8, ptr %0, i64 16
  %4 = load ptr, ptr %3, align 8, !noalias !20
  %5 = tail call noundef i64 @_ZNK4llvm15SmallVectorBaseIjE4sizeEv(ptr noundef nonnull align 8 dereferenceable(16) %3) #27, !noalias !20
  %6 = getelementptr inbounds %"class.llvm::IntrusiveRefCntPtr", ptr %4, i64 %5
  %7 = load ptr, ptr %3, align 8, !noalias !25
  br label %8

8:                                                ; preds = %9, %2
  %.sroa.03.0 = phi ptr [ %6, %2 ], [ %10, %9 ]
  %.not.not.not.not.not = icmp ne ptr %.sroa.03.0, %7
  br i1 %.not.not.not.not.not, label %9, label %16

9:                                                ; preds = %8
  %10 = getelementptr inbounds i8, ptr %.sroa.03.0, i64 -8
  %11 = load ptr, ptr %10, align 8
  %12 = load ptr, ptr %11, align 8
  %13 = getelementptr inbounds i8, ptr %12, i64 88
  %14 = load ptr, ptr %13, align 8
  %15 = tail call noundef zeroext i1 %14(ptr noundef nonnull align 8 dereferenceable(12) %11, ptr noundef nonnull align 8 dereferenceable(34) %1) #27
  br i1 %15, label %16, label %8, !llvm.loop !30

16:                                               ; preds = %8, %9
  ret i1 %.not.not.not.not.not
}